target datalayout = "e-m:e-p270:32:32-p271:32:32-p272:64:64-i64:64-i128:128-f80:128-n8:16:32:64-S128"
target triple = "x86_64-pc-linux-gnu"

%struct.DdManager = type { %struct.DdNode, ptr, ptr, ptr, ptr, ptr, ptr, ptr, i32, i32, double, double, double, i32, i32, i32, i32, i32, i32, ptr, ptr, %struct.DdSubtable, i32, i32, i32, i32, i32, i32, i32, double, i32, i32, i32, ptr, i64, double, i32, ptr, ptr, ptr, ptr, ptr, ptr, ptr, i32, ptr, ptr, ptr, ptr, ptr, ptr, i32, i32, i32, double, i32, i32, i32, i32, double, double, i32, i32, i32, i32, i32, i32, i32, i32, i32, ptr, ptr, i32, i32, i32, i32, i32, i32, ptr, ptr, ptr, ptr, ptr, ptr, ptr, ptr, i32, i64, i64, i64, i32, i64, i64, double, double, double, double, double, double, i32, ptr, ptr, i64 }
%struct.DdNode = type { i32, i32, ptr, %union.anon, i64 }
%union.anon = type { %struct.DdChildren }
%struct.DdChildren = type { ptr, ptr }
%struct.DdSubtable = type { ptr, i32, i32, i32, i32, i32, i32, i32, i32, i32, i32, i32 }

; Function Attrs: nounwind uwtable
define internal i32 @ddSecDiffCheck(ptr noundef %0, i32 noundef %1, i32 noundef %2) #0 {
  %4 = alloca i32, align 4
  %5 = alloca ptr, align 8
  %6 = alloca i32, align 4
  %7 = alloca i32, align 4
  %8 = alloca double, align 8
  %9 = alloca double, align 8
  %10 = alloca double, align 8
  %11 = alloca double, align 8
  %12 = alloca i32, align 4
  %13 = alloca i32, align 4
  %14 = alloca i32, align 4
  store ptr %0, ptr %5, align 8, !tbaa !3
  store i32 %1, ptr %6, align 4, !tbaa !8
  store i32 %2, ptr %7, align 4, !tbaa !8
  call void @llvm.lifetime.start.p0(i64 8, ptr %8) #6
  call void @llvm.lifetime.start.p0(i64 8, ptr %9) #6
  call void @llvm.lifetime.start.p0(i64 8, ptr %10) #6
  call void @llvm.lifetime.start.p0(i64 8, ptr %11) #6
  call void @llvm.lifetime.start.p0(i64 4, ptr %12) #6
  call void @llvm.lifetime.start.p0(i64 4, ptr %13) #6
  %15 = load i32, ptr %6, align 4, !tbaa !8
  %16 = icmp eq i32 %15, 0
  br i1 %16, label %17, label %18

17:                                               ; preds = %3
  store i32 0, ptr %4, align 4
  store i32 1, ptr %14, align 4
  br label %84

18:                                               ; preds = %3
  %19 = load ptr, ptr %5, align 8, !tbaa !3
  %20 = getelementptr inbounds nuw %struct.DdManager, ptr %19, i32 0, i32 19
  %21 = load ptr, ptr %20, align 8, !tbaa !34
  %22 = load i32, ptr %6, align 4, !tbaa !8
  %23 = sext i32 %22 to i64
  %24 = getelementptr inbounds %struct.DdSubtable, ptr %21, i64 %23
  %25 = getelementptr inbounds nuw %struct.DdSubtable, ptr %24, i32 0, i32 3
  %26 = load i32, ptr %25, align 8, !tbaa !54
  %27 = uitofp i32 %26 to double
  store double %27, ptr %8, align 8, !tbaa !97
  %28 = load ptr, ptr %5, align 8, !tbaa !3
  %29 = getelementptr inbounds nuw %struct.DdManager, ptr %28, i32 0, i32 19
  %30 = load ptr, ptr %29, align 8, !tbaa !34
  %31 = load i32, ptr %6, align 4, !tbaa !8
  %32 = sub nsw i32 %31, 1
  %33 = sext i32 %32 to i64
  %34 = getelementptr inbounds %struct.DdSubtable, ptr %30, i64 %33
  %35 = getelementptr inbounds nuw %struct.DdSubtable, ptr %34, i32 0, i32 3
  %36 = load i32, ptr %35, align 8, !tbaa !54
  %37 = uitofp i32 %36 to double
  store double %37, ptr %9, align 8, !tbaa !97
  %38 = load ptr, ptr %5, align 8, !tbaa !3
  %39 = getelementptr inbounds nuw %struct.DdManager, ptr %38, i32 0, i32 19
  %40 = load ptr, ptr %39, align 8, !tbaa !34
  %41 = load i32, ptr %7, align 4, !tbaa !8
  %42 = sext i32 %41 to i64
  %43 = getelementptr inbounds %struct.DdSubtable, ptr %40, i64 %42
  %44 = getelementptr inbounds nuw %struct.DdSubtable, ptr %43, i32 0, i32 3
  %45 = load i32, ptr %44, align 8, !tbaa !54
  %46 = uitofp i32 %45 to double
  %47 = load double, ptr %8, align 8, !tbaa !97
  %48 = fdiv double %46, %47
  %49 = load double, ptr %8, align 8, !tbaa !97
  %50 = load double, ptr %9, align 8, !tbaa !97
  %51 = fdiv double %49, %50
  %52 = fsub double %48, %51
  store double %52, ptr %10, align 8, !tbaa !97
  %53 = load ptr, ptr %5, align 8, !tbaa !3
  %54 = getelementptr inbounds nuw %struct.DdManager, ptr %53, i32 0, i32 73
  %55 = load i32, ptr %54, align 4, !tbaa !98
  %56 = sitofp i32 %55 to double
  %57 = fdiv double %56, 1.000000e+02
  store double %57, ptr %11, align 8, !tbaa !97
  %58 = load double, ptr %10, align 8, !tbaa !97
  %59 = load double, ptr %11, align 8, !tbaa !97
  %60 = fcmp olt double %58, %59
  br i1 %60, label %61, label %83

61:                                               ; preds = %18
  %62 = load ptr, ptr %5, align 8, !tbaa !3
  %63 = getelementptr inbounds nuw %struct.DdManager, ptr %62, i32 0, i32 39
  %64 = load ptr, ptr %63, align 8, !tbaa !30
  %65 = load i32, ptr %6, align 4, !tbaa !8
  %66 = sext i32 %65 to i64
  %67 = getelementptr inbounds i32, ptr %64, i64 %66
  %68 = load i32, ptr %67, align 4, !tbaa !8
  store i32 %68, ptr %12, align 4, !tbaa !8
  %69 = load ptr, ptr %5, align 8, !tbaa !3
  %70 = getelementptr inbounds nuw %struct.DdManager, ptr %69, i32 0, i32 39
  %71 = load ptr, ptr %70, align 8, !tbaa !30
  %72 = load i32, ptr %7, align 4, !tbaa !8
  %73 = sext i32 %72 to i64
  %74 = getelementptr inbounds i32, ptr %71, i64 %73
  %75 = load i32, ptr %74, align 4, !tbaa !8
  store i32 %75, ptr %13, align 4, !tbaa !8
  %76 = load ptr, ptr %5, align 8, !tbaa !3
  %77 = load i32, ptr %12, align 4, !tbaa !8
  %78 = load i32, ptr %13, align 4, !tbaa !8
  %79 = call i32 @cuddTestInteract(ptr noundef %76, i32 noundef %77, i32 noundef %78)
  %80 = icmp ne i32 %79, 0
  br i1 %80, label %81, label %82

81:                                               ; preds = %61
  store i32 1, ptr %4, align 4
  store i32 1, ptr %14, align 4
  br label %84

82:                                               ; preds = %61
  store i32 0, ptr %4, align 4
  store i32 1, ptr %14, align 4
  br label %84

83:                                               ; preds = %18
  store i32 0, ptr %4, align 4
  store i32 1, ptr %14, align 4
  br label %84

84:                                               ; preds = %83, %82, %81, %17
  call void @llvm.lifetime.end.p0(i64 4, ptr %13) #6
  call void @llvm.lifetime.end.p0(i64 4, ptr %12) #6
  call void @llvm.lifetime.end.p0(i64 8, ptr %11) #6
  call void @llvm.lifetime.end.p0(i64 8, ptr %10) #6
  call void @llvm.lifetime.end.p0(i64 8, ptr %9) #6
  call void @llvm.lifetime.end.p0(i64 8, ptr %8) #6
  %85 = load i32, ptr %4, align 4
  ret i32 %85
}