; Function Attrs: nounwind uwtable
define internal fastcc range(i32 0, 2) i32 @ddSecDiffCheck(ptr noundef %0, i32 noundef %1, i32 noundef %2) unnamed_addr #0 {
  %4 = icmp eq i32 %1, 0
  br i1 %4, label %36, label %5

5:                                                ; preds = %3
  %6 = getelementptr inbounds nuw i8, ptr %0, i64 152
  %7 = load ptr, ptr %6, align 8, !tbaa !31
  %8 = sext i32 %1 to i64
  %9 = getelementptr inbounds %struct.DdSubtable, ptr %7, i64 %8, i32 3
  %10 = load i32, ptr %9, align 8, !tbaa !52
  %11 = uitofp i32 %10 to double
  %12 = getelementptr %struct.DdSubtable, ptr %7, i64 %8
  %13 = getelementptr i8, ptr %12, i64 -40
  %14 = load i32, ptr %13, align 8, !tbaa !52
  %15 = uitofp i32 %14 to double
  %16 = sext i32 %2 to i64
  %17 = getelementptr inbounds %struct.DdSubtable, ptr %7, i64 %16, i32 3
  %18 = load i32, ptr %17, align 8, !tbaa !52
  %19 = uitofp i32 %18 to double
  %20 = fdiv double %19, %11
  %21 = fdiv double %11, %15
  %22 = fsub double %20, %21
  %23 = getelementptr inbounds nuw i8, ptr %0, i64 540
  %24 = load i32, ptr %23, align 4, !tbaa !94
  %25 = sitofp i32 %24 to double
  %26 = fdiv double %25, 1.000000e+02
  %27 = fcmp olt double %22, %26
  br i1 %27, label %28, label %36

28:                                               ; preds = %5
  %29 = getelementptr inbounds nuw i8, ptr %0, i64 328
  %30 = load ptr, ptr %29, align 8, !tbaa !27
  %31 = getelementptr inbounds i32, ptr %30, i64 %8
  %32 = load i32, ptr %31, align 4, !tbaa !25
  %33 = getelementptr inbounds i32, ptr %30, i64 %16
  %34 = load i32, ptr %33, align 4, !tbaa !25
  %35 = tail call i32 @cuddTestInteract(ptr noundef nonnull %0, i32 noundef %32, i32 noundef %34) #11
  %.not = icmp ne i32 %35, 0
  %. = zext i1 %.not to i32
  br label %36

36:                                               ; preds = %5, %28, %3
  %.0 = phi i32 [ 0, %3 ], [ %., %28 ], [ 0, %5 ]
  ret i32 %.0
}